target datalayout = "e-m:e-p270:32:32-p271:32:32-p272:64:64-i64:64-i128:128-f80:128-n8:16:32:64-S128"
target triple = "x86_64-pc-linux-gnu"

%"struct.std::_Vector_base.25" = type { %"struct.std::_Vector_base<int, std::allocator<int>>::_Vector_impl" }
%"struct.std::_Vector_base<int, std::allocator<int>>::_Vector_impl" = type { %"struct.std::_Vector_base<int, std::allocator<int>>::_Vector_impl_data" }
%"struct.std::_Vector_base<int, std::allocator<int>>::_Vector_impl_data" = type { ptr, ptr, ptr }

; Function Attrs: mustprogress nounwind uwtable
define linkonce_odr noundef nonnull align 4 dereferenceable(4) ptr @_ZNKSt6vectorIiSaIiEEixEm(ptr noundef nonnull align 8 dereferenceable(24) %0, i64 noundef %1) #6 comdat align 2 {
  %3 = alloca ptr, align 8
  %4 = alloca i64, align 8
  store ptr %0, ptr %3, align 8, !tbaa !152
  store i64 %1, ptr %4, align 8, !tbaa !42
  %5 = load ptr, ptr %3, align 8
  %6 = getelementptr inbounds nuw %"struct.std::_Vector_base.25", ptr %5, i32 0, i32 0
  %7 = getelementptr inbounds nuw %"struct.std::_Vector_base<int, std::allocator<int>>::_Vector_impl_data", ptr %6, i32 0, i32 0
  %8 = load ptr, ptr %7, align 8, !tbaa !357
  %9 = load i64, ptr %4, align 8, !tbaa !42
  %10 = getelementptr inbounds nuw i32, ptr %8, i64 %9
  ret ptr %10
}

; Function Attrs: mustprogress nounwind uwtable
define linkonce_odr noundef i64 @_ZNKSt6vectorIiSaIiEE4sizeEv(ptr noundef nonnull align 8 dereferenceable(24) %0) #6 comdat align 2 {
  %2 = alloca ptr, align 8
  store ptr %0, ptr %2, align 8, !tbaa !152
  %3 = load ptr, ptr %2, align 8
  %4 = getelementptr inbounds nuw %"struct.std::_Vector_base.25", ptr %3, i32 0, i32 0
  %5 = getelementptr inbounds nuw %"struct.std::_Vector_base<int, std::allocator<int>>::_Vector_impl_data", ptr %4, i32 0, i32 1
  %6 = load ptr, ptr %5, align 8, !tbaa !355
  %7 = getelementptr inbounds nuw %"struct.std::_Vector_base.25", ptr %3, i32 0, i32 0
  %8 = getelementptr inbounds nuw %"struct.std::_Vector_base<int, std::allocator<int>>::_Vector_impl_data", ptr %7, i32 0, i32 0
  %9 = load ptr, ptr %8, align 8, !tbaa !357
  %10 = ptrtoint ptr %6 to i64
  %11 = ptrtoint ptr %9 to i64
  %12 = sub i64 %10, %11
  %13 = sdiv exact i64 %12, 4
  ret i64 %13
}

; Function Attrs: mustprogress nounwind uwtable
define noundef i64 @_Z10common_lcpRKSt6vectorIiSaIiEES3_(ptr noundef nonnull align 8 dereferenceable(24) %0, ptr noundef nonnull align 8 dereferenceable(24) %1) #6 {
  %3 = alloca ptr, align 8
  %4 = alloca ptr, align 8
  %5 = alloca i64, align 8
  store ptr %0, ptr %3, align 8, !tbaa !152
  store ptr %1, ptr %4, align 8, !tbaa !152
  call void @llvm.lifetime.start.p0(i64 8, ptr %5) #3
  store i64 0, ptr %5, align 8, !tbaa !42
  br label %6

6:                                                ; preds = %29, %2
  %7 = load i64, ptr %5, align 8, !tbaa !42
  %8 = load ptr, ptr %3, align 8, !tbaa !152
  %9 = call noundef i64 @_ZNKSt6vectorIiSaIiEE4sizeEv(ptr noundef nonnull align 8 dereferenceable(24) %8) #3
  %10 = icmp ult i64 %7, %9
  br i1 %10, label %11, label %26

11:                                               ; preds = %6
  %12 = load i64, ptr %5, align 8, !tbaa !42
  %13 = load ptr, ptr %4, align 8, !tbaa !152
  %14 = call noundef i64 @_ZNKSt6vectorIiSaIiEE4sizeEv(ptr noundef nonnull align 8 dereferenceable(24) %13) #3
  %15 = icmp ult i64 %12, %14
  br i1 %15, label %16, label %26

16:                                               ; preds = %11
  %17 = load ptr, ptr %3, align 8, !tbaa !152
  %18 = load i64, ptr %5, align 8, !tbaa !42
  %19 = call noundef nonnull align 4 dereferenceable(4) ptr @_ZNKSt6vectorIiSaIiEEixEm(ptr noundef nonnull align 8 dereferenceable(24) %17, i64 noundef %18) #3
  %20 = load i32, ptr %19, align 4, !tbaa !3
  %21 = load ptr, ptr %4, align 8, !tbaa !152
  %22 = load i64, ptr %5, align 8, !tbaa !42
  %23 = call noundef nonnull align 4 dereferenceable(4) ptr @_ZNKSt6vectorIiSaIiEEixEm(ptr noundef nonnull align 8 dereferenceable(24) %21, i64 noundef %22) #3
  %24 = load i32, ptr %23, align 4, !tbaa !3
  %25 = icmp eq i32 %20, %24
  br label %26

26:                                               ; preds = %16, %11, %6
  %27 = phi i1 [ false, %11 ], [ false, %6 ], [ %25, %16 ]
  br i1 %27, label %28, label %32

28:                                               ; preds = %26
  br label %29

29:                                               ; preds = %28
  %30 = load i64, ptr %5, align 8, !tbaa !42
  %31 = add i64 %30, 1
  store i64 %31, ptr %5, align 8, !tbaa !42
  br label %6, !llvm.loop !379

32:                                               ; preds = %26
  %33 = load i64, ptr %5, align 8, !tbaa !42
  call void @llvm.lifetime.end.p0(i64 8, ptr %5) #3
  ret i64 %33
}