; Function Attrs: mustprogress nofree norecurse nosync nounwind willreturn memory(read, inaccessiblemem: none) uwtable
define noundef i64 @_Z10common_lcpRKSt6vectorIiSaIiEES3_(ptr noundef nonnull readonly align 8 captures(none) dereferenceable(24) %0, ptr noundef nonnull readonly align 8 captures(none) dereferenceable(24) %1) local_unnamed_addr #22 {
  %3 = getelementptr inbounds nuw i8, ptr %0, i64 8
  %4 = load ptr, ptr %3, align 8, !tbaa !462
  %5 = load ptr, ptr %0, align 8, !tbaa !463
  %.not = icmp eq ptr %4, %5
  br i1 %.not, label %.critedge, label %.lr.ph

.lr.ph:                                           ; preds = %2
  %6 = ptrtoint ptr %4 to i64
  %7 = ptrtoint ptr %5 to i64
  %8 = sub i64 %6, %7
  %9 = ashr exact i64 %8, 2
  %10 = getelementptr inbounds nuw i8, ptr %1, i64 8
  %11 = load ptr, ptr %10, align 8, !tbaa !462
  %12 = load ptr, ptr %1, align 8, !tbaa !463
  %13 = ptrtoint ptr %11 to i64
  %14 = ptrtoint ptr %12 to i64
  %15 = sub i64 %13, %14
  %16 = ashr exact i64 %15, 2
  %umax = tail call i64 @llvm.umax.i64(i64 %9, i64 1)
  br label %17

17:                                               ; preds = %.lr.ph, %24
  %.09 = phi i64 [ 0, %.lr.ph ], [ %25, %24 ]
  %exitcond.not = icmp eq i64 %.09, %16
  br i1 %exitcond.not, label %.critedge, label %18

18:                                               ; preds = %17
  %19 = getelementptr inbounds nuw i32, ptr %5, i64 %.09
  %20 = load i32, ptr %19, align 4, !tbaa !72
  %21 = getelementptr inbounds nuw i32, ptr %12, i64 %.09
  %22 = load i32, ptr %21, align 4, !tbaa !72
  %23 = icmp eq i32 %20, %22
  br i1 %23, label %24, label %.critedge

24:                                               ; preds = %18
  %25 = add nuw i64 %.09, 1
  %exitcond14.not = icmp eq i64 %25, %umax
  br i1 %exitcond14.not, label %.critedge, label %17, !llvm.loop !465

.critedge:                                        ; preds = %18, %24, %17, %2
  %.0.lcssa = phi i64 [ 0, %2 ], [ %16, %17 ], [ %umax, %24 ], [ %.09, %18 ]
  ret i64 %.0.lcssa
}